#include <math.h>
#include <stdio.h>
#include <stdlib.h>
#include <string.h>
#include <iostream>
using namespace std;

/*
 * homework3.cpp
 *
 *  Created on: 2012-12-4
 *      Author: Lixurong
 */


int main()
{
	char a[1000];
	cin.getline(a,1000);
	int p=0, len=strlen(a);
	for( int i=0; i<len; i++ )
	{
		if( *(a+i) != ' ' )
		{
            p=0;
		}
		else if(p==1)
		{
			for( int j=i; j<len-1; j++ )
			{
				*(a+j)=*(a+j+1);
			}
			len--;
			i--;
		}
		else
		{
			p=1;
		}
	}
	*(a+len)='\0';
	cout << a;
}